target datalayout = "e-m:e-p270:32:32-p271:32:32-p272:64:64-i64:64-i128:128-f80:128-n8:16:32:64-S128"
target triple = "x86_64-pc-linux-gnu"

%struct.rb_data_type_struct = type { ptr, %struct.anon.2, ptr, ptr, i64 }
%struct.anon.2 = type { ptr, ptr, ptr, ptr, [1 x ptr] }
%struct.zstream = type { i64, i64, i64, i64, %struct.z_stream_s, ptr }
%struct.z_stream_s = type { ptr, i32, i64, ptr, i32, i64, ptr, ptr, ptr, ptr, ptr, i32, i64, i64 }

@zstream_data_type = internal constant %struct.rb_data_type_struct { ptr @.str.147, %struct.anon.2 { ptr @zstream_mark, ptr @zstream_free, ptr @zstream_memsize, ptr null, [1 x ptr] zeroinitializer }, ptr null, ptr null, i64 1 }, align 8
@rb_cString = external global i64, align 8

; Function Attrs: inlinehint nounwind sspstrong willreturn memory(none) uwtable
define internal zeroext i1 @RB_NIL_P(i64 noundef %0) #5 {
  %2 = alloca i64, align 8
  store i64 %0, ptr %2, align 8, !tbaa !6
  %3 = load i64, ptr %2, align 8, !tbaa !6
  %4 = icmp eq i64 %3, 4
  ret i1 %4
}

; Function Attrs: nounwind sspstrong uwtable
define internal i64 @zstream_detach_input(ptr noundef %0) #0 {
  %2 = alloca ptr, align 8
  %3 = alloca i64, align 8
  store ptr %0, ptr %2, align 8, !tbaa !21
  call void @llvm.lifetime.start.p0(i64 8, ptr %3) #23
  %4 = load ptr, ptr %2, align 8, !tbaa !21
  %5 = getelementptr inbounds nuw %struct.zstream, ptr %4, i32 0, i32 2
  %6 = load i64, ptr %5, align 8, !tbaa !28
  %7 = call zeroext i1 @RB_NIL_P(i64 noundef %6) #24
  br i1 %7, label %8, label %10

8:                                                ; preds = %1
  %9 = call i64 @rb_str_new_static(ptr noundef null, i64 noundef 0)
  store i64 %9, ptr %3, align 8, !tbaa !6
  br label %17

10:                                               ; preds = %1
  %11 = load ptr, ptr %2, align 8, !tbaa !21
  %12 = getelementptr inbounds nuw %struct.zstream, ptr %11, i32 0, i32 2
  %13 = load i64, ptr %12, align 8, !tbaa !28
  store i64 %13, ptr %3, align 8, !tbaa !6
  %14 = load i64, ptr %3, align 8, !tbaa !6
  %15 = load i64, ptr @rb_cString, align 8, !tbaa !6
  %16 = call i64 @rb_obj_reveal(i64 noundef %14, i64 noundef %15)
  br label %17

17:                                               ; preds = %10, %8
  %18 = load ptr, ptr %2, align 8, !tbaa !21
  %19 = getelementptr inbounds nuw %struct.zstream, ptr %18, i32 0, i32 2
  store i64 4, ptr %19, align 8, !tbaa !28
  %20 = load i64, ptr %3, align 8, !tbaa !6
  call void @llvm.lifetime.end.p0(i64 8, ptr %3) #23
  ret i64 %20
}

; Function Attrs: nounwind sspstrong uwtable
define internal i64 @rb_zstream_flush_next_in(i64 noundef %0) #0 {
  %2 = alloca i64, align 8
  %3 = alloca ptr, align 8
  %4 = alloca i64, align 8
  store i64 %0, ptr %2, align 8, !tbaa !6
  call void @llvm.lifetime.start.p0(i64 8, ptr %3) #23
  call void @llvm.lifetime.start.p0(i64 8, ptr %4) #23
  %5 = load i64, ptr %2, align 8, !tbaa !6
  %6 = call ptr @rb_check_typeddata(i64 noundef %5, ptr noundef @zstream_data_type)
  store ptr %6, ptr %3, align 8, !tbaa !21
  %7 = load ptr, ptr %3, align 8, !tbaa !21
  %8 = call i64 @zstream_detach_input(ptr noundef %7)
  store i64 %8, ptr %4, align 8, !tbaa !6
  %9 = load i64, ptr %4, align 8, !tbaa !6
  call void @llvm.lifetime.end.p0(i64 8, ptr %4) #23
  call void @llvm.lifetime.end.p0(i64 8, ptr %3) #23
  ret i64 %9
}