; Function Attrs: nounwind sspstrong uwtable
define internal i64 @rb_zstream_flush_next_in(i64 noundef %0) #0 {
  %2 = tail call ptr @rb_check_typeddata(i64 noundef %0, ptr noundef nonnull @zstream_data_type) #18
  %3 = getelementptr inbounds nuw i8, ptr %2, i64 16
  %4 = load i64, ptr %3, align 8, !tbaa !51
  %5 = icmp eq i64 %4, 4
  br i1 %5, label %6, label %8

6:                                                ; preds = %1
  %7 = tail call i64 @rb_str_new_static(ptr noundef null, i64 noundef 0) #18
  br label %zstream_detach_input.exit

8:                                                ; preds = %1
  %9 = load i64, ptr @rb_cString, align 8, !tbaa !6
  %10 = tail call i64 @rb_obj_reveal(i64 noundef %4, i64 noundef %9) #18
  br label %zstream_detach_input.exit

zstream_detach_input.exit:                        ; preds = %6, %8
  %.0.i = phi i64 [ %7, %6 ], [ %4, %8 ]
  store i64 4, ptr %3, align 8, !tbaa !51
  ret i64 %.0.i
}